target datalayout = "e-m:e-p270:32:32-p271:32:32-p272:64:64-i64:64-i128:128-f80:128-n8:16:32:64-S128"
target triple = "x86_64-pc-linux-gnu"

%struct.expert_field = type { i32, i32 }
%struct.ansi_a_shared_data_t = type { ptr, ptr, ptr, i8, i8, %struct._address, i32, %struct.e_in6_addr, i16, i8 }
%struct._address = type { i32, i32, ptr, ptr }
%struct.e_in6_addr = type { [16 x i8] }
%struct.ext_value_string_t = type { i32, ptr, i32 }

@ansi_a_elem_1_max = internal global i32 0, align 4
@ansi_a_elem_1_strings = global ptr null, align 8
@.str.282 = private unnamed_addr constant [1 x i8] zeroinitializer, align 1
@ei_ansi_a_extraneous_data = internal global %struct.expert_field zeroinitializer, align 4
@ei_ansi_a_no_v_elem_diss = internal global %struct.expert_field zeroinitializer, align 4
@global_a_variant = internal global i32 9, align 4
@.str.1754 = private unnamed_addr constant [58 x i8] c"No element dissector, rest of dissection may be incorrect\00", align 1

; Function Attrs: null_pointer_is_valid sspstrong uwtable
define internal zeroext i16 @elem_v(ptr noundef %0, ptr noundef %1, ptr noundef %2, i32 noundef %3, i32 noundef %4, ptr noundef %5) #1 {
  %7 = alloca i16, align 2
  %8 = alloca ptr, align 8
  %9 = alloca ptr, align 8
  %10 = alloca ptr, align 8
  %11 = alloca i32, align 4
  %12 = alloca i32, align 4
  %13 = alloca ptr, align 8
  %14 = alloca i16, align 2
  %15 = alloca i32, align 4
  %16 = alloca i32, align 4
  %17 = alloca i32, align 4
  store ptr %0, ptr %8, align 8
  store ptr %1, ptr %9, align 8
  store ptr %2, ptr %10, align 8
  store i32 %3, ptr %11, align 4
  store i32 %4, ptr %12, align 4
  store ptr %5, ptr %13, align 8
  call void @llvm.lifetime.start.p0(i64 2, ptr %14) #8
  call void @llvm.lifetime.start.p0(i64 4, ptr %15) #8
  call void @llvm.lifetime.start.p0(i64 4, ptr %16) #8
  %18 = load i32, ptr %12, align 4
  store i32 %18, ptr %15, align 4
  %19 = load i32, ptr %11, align 4
  %20 = icmp slt i32 %19, 0
  br i1 %20, label %26, label %21

21:                                               ; preds = %6
  %22 = load i32, ptr %11, align 4
  %23 = load i32, ptr @ansi_a_elem_1_max, align 4
  %24 = sub i32 %23, 1
  %25 = icmp uge i32 %22, %24
  br i1 %25, label %26, label %31

26:                                               ; preds = %21, %6
  %27 = load ptr, ptr %8, align 8
  %28 = load i32, ptr %12, align 4
  %29 = call i32 @tvb_reported_length_remaining(ptr noundef %27, i32 noundef %28)
  %30 = trunc i32 %29 to i16
  store i16 %30, ptr %7, align 2
  store i32 1, ptr %17, align 4
  br label %65

31:                                               ; preds = %21
  %32 = load ptr, ptr @ansi_a_elem_1_strings, align 8
  %33 = load i32, ptr %11, align 4
  %34 = zext i32 %33 to i64
  %35 = getelementptr %struct.ext_value_string_t, ptr %32, i64 %34
  %36 = getelementptr inbounds nuw %struct.ext_value_string_t, ptr %35, i32 0, i32 2
  %37 = load i32, ptr %36, align 8
  store i32 %37, ptr %16, align 4
  %38 = load ptr, ptr %13, align 8
  %39 = getelementptr inbounds nuw %struct.ansi_a_shared_data_t, ptr %38, i32 0, i32 2
  store ptr null, ptr %39, align 8
  %40 = load i32, ptr %16, align 4
  %41 = sext i32 %40 to i64
  %42 = getelementptr [92 x ptr], ptr @elem_1_fcn, i64 0, i64 %41
  %43 = load ptr, ptr %42, align 8
  %44 = icmp eq ptr %43, null
  br i1 %44, label %45, label %51

45:                                               ; preds = %31
  %46 = load ptr, ptr %10, align 8
  %47 = load ptr, ptr %9, align 8
  %48 = load ptr, ptr %8, align 8
  %49 = load i32, ptr %15, align 4
  %50 = call ptr (ptr, ptr, ptr, ptr, i32, i32, ptr, ...) @proto_tree_add_expert_format(ptr noundef %46, ptr noundef %47, ptr noundef @ei_ansi_a_no_v_elem_diss, ptr noundef %48, i32 noundef %49, i32 noundef 1, ptr noundef @.str.1754)
  store i16 1, ptr %14, align 2
  br label %63

51:                                               ; preds = %31
  %52 = load i32, ptr %16, align 4
  %53 = sext i32 %52 to i64
  %54 = getelementptr [92 x ptr], ptr @elem_1_fcn, i64 0, i64 %53
  %55 = load ptr, ptr %54, align 8
  %56 = load ptr, ptr %8, align 8
  %57 = load ptr, ptr %9, align 8
  %58 = load ptr, ptr %10, align 8
  %59 = load i32, ptr %15, align 4
  %60 = load ptr, ptr %13, align 8
  %61 = call zeroext i8 %55(ptr noundef %56, ptr noundef %57, ptr noundef %58, i32 noundef %59, i32 noundef -1, ptr noundef %60)
  %62 = zext i8 %61 to i16
  store i16 %62, ptr %14, align 2
  br label %63

63:                                               ; preds = %51, %45
  %64 = load i16, ptr %14, align 2
  store i16 %64, ptr %7, align 2
  store i32 1, ptr %17, align 4
  br label %65

65:                                               ; preds = %63, %26
  call void @llvm.lifetime.end.p0(i64 4, ptr %16) #8
  call void @llvm.lifetime.end.p0(i64 4, ptr %15) #8
  call void @llvm.lifetime.end.p0(i64 2, ptr %14) #8
  %66 = load i16, ptr %7, align 2
  ret i16 %66
}

; Function Attrs: null_pointer_is_valid sspstrong uwtable
define internal void @dtap_lu_reject(ptr noundef %0, ptr noundef %1, ptr noundef %2, i32 noundef %3, i32 noundef %4, ptr noundef %5) #1 {
  %7 = alloca ptr, align 8
  %8 = alloca ptr, align 8
  %9 = alloca ptr, align 8
  %10 = alloca i32, align 4
  %11 = alloca i32, align 4
  %12 = alloca ptr, align 8
  %13 = alloca i32, align 4
  %14 = alloca i32, align 4
  %15 = alloca i32, align 4
  %16 = alloca i32, align 4
  store ptr %0, ptr %7, align 8
  store ptr %1, ptr %8, align 8
  store ptr %2, ptr %9, align 8
  store i32 %3, ptr %10, align 4
  store i32 %4, ptr %11, align 4
  store ptr %5, ptr %12, align 8
  call void @llvm.lifetime.start.p0(i64 4, ptr %13) #8
  call void @llvm.lifetime.start.p0(i64 4, ptr %14) #8
  call void @llvm.lifetime.start.p0(i64 4, ptr %15) #8
  %17 = load i32, ptr %10, align 4
  store i32 %17, ptr %13, align 4
  %18 = load i32, ptr %11, align 4
  store i32 %18, ptr %15, align 4
  %19 = load ptr, ptr %12, align 8
  %20 = getelementptr inbounds nuw %struct.ansi_a_shared_data_t, ptr %19, i32 0, i32 4
  %21 = load i8, ptr %20, align 1, !range !18, !noundef !19
  %22 = trunc i8 %21 to i1
  br i1 %22, label %23, label %31

23:                                               ; preds = %6
  %24 = load ptr, ptr %7, align 8
  %25 = load ptr, ptr %8, align 8
  %26 = load ptr, ptr %9, align 8
  %27 = load i32, ptr %13, align 4
  %28 = load ptr, ptr %12, align 8
  %29 = call zeroext i16 @elem_tv(ptr noundef %24, ptr noundef %25, ptr noundef %26, i32 noundef 63, i32 noundef %27, ptr noundef @.str.282, ptr noundef %28)
  %30 = zext i16 %29 to i32
  br label %39

31:                                               ; preds = %6
  %32 = load ptr, ptr %7, align 8
  %33 = load ptr, ptr %8, align 8
  %34 = load ptr, ptr %9, align 8
  %35 = load i32, ptr %13, align 4
  %36 = load ptr, ptr %12, align 8
  %37 = call zeroext i16 @elem_v(ptr noundef %32, ptr noundef %33, ptr noundef %34, i32 noundef 63, i32 noundef %35, ptr noundef %36)
  %38 = zext i16 %37 to i32
  br label %39

39:                                               ; preds = %31, %23
  %40 = phi i32 [ %30, %23 ], [ %38, %31 ]
  store i32 %40, ptr %14, align 4
  %41 = icmp ugt i32 %40, 0
  br i1 %41, label %42, label %49

42:                                               ; preds = %39
  %43 = load i32, ptr %14, align 4
  %44 = load i32, ptr %13, align 4
  %45 = add i32 %44, %43
  store i32 %45, ptr %13, align 4
  %46 = load i32, ptr %14, align 4
  %47 = load i32, ptr %15, align 4
  %48 = sub i32 %47, %46
  store i32 %48, ptr %15, align 4
  br label %50

49:                                               ; preds = %39
  br label %50

50:                                               ; preds = %49, %42
  %51 = load i32, ptr %15, align 4
  %52 = icmp ule i32 %51, 0
  br i1 %52, label %53, label %54

53:                                               ; preds = %50
  store i32 1, ptr %16, align 4
  br label %115

54:                                               ; preds = %50
  %55 = load i32, ptr @global_a_variant, align 4
  switch i32 %55, label %99 [
    i32 10, label %56
  ]

56:                                               ; preds = %54
  %57 = load ptr, ptr %7, align 8
  %58 = load ptr, ptr %8, align 8
  %59 = load ptr, ptr %9, align 8
  %60 = load i32, ptr %13, align 4
  %61 = load i32, ptr %15, align 4
  %62 = load ptr, ptr %12, align 8
  %63 = call zeroext i16 @elem_tlv(ptr noundef %57, ptr noundef %58, ptr noundef %59, i32 noundef 57, i32 noundef %60, i32 noundef %61, ptr noundef @.str.282, ptr noundef %62)
  %64 = zext i16 %63 to i32
  store i32 %64, ptr %14, align 4
  %65 = icmp ugt i32 %64, 0
  br i1 %65, label %66, label %73

66:                                               ; preds = %56
  %67 = load i32, ptr %14, align 4
  %68 = load i32, ptr %13, align 4
  %69 = add i32 %68, %67
  store i32 %69, ptr %13, align 4
  %70 = load i32, ptr %14, align 4
  %71 = load i32, ptr %15, align 4
  %72 = sub i32 %71, %70
  store i32 %72, ptr %15, align 4
  br label %73

73:                                               ; preds = %66, %56
  %74 = load i32, ptr %15, align 4
  %75 = icmp ule i32 %74, 0
  br i1 %75, label %76, label %77

76:                                               ; preds = %73
  store i32 1, ptr %16, align 4
  br label %115

77:                                               ; preds = %73
  %78 = load ptr, ptr %7, align 8
  %79 = load ptr, ptr %8, align 8
  %80 = load ptr, ptr %9, align 8
  %81 = load i32, ptr %13, align 4
  %82 = load i32, ptr %15, align 4
  %83 = load ptr, ptr %12, align 8
  %84 = call zeroext i16 @elem_tlv(ptr noundef %78, ptr noundef %79, ptr noundef %80, i32 noundef 88, i32 noundef %81, i32 noundef %82, ptr noundef @.str.282, ptr noundef %83)
  %85 = zext i16 %84 to i32
  store i32 %85, ptr %14, align 4
  %86 = icmp ugt i32 %85, 0
  br i1 %86, label %87, label %94

87:                                               ; preds = %77
  %88 = load i32, ptr %14, align 4
  %89 = load i32, ptr %13, align 4
  %90 = add i32 %89, %88
  store i32 %90, ptr %13, align 4
  %91 = load i32, ptr %14, align 4
  %92 = load i32, ptr %15, align 4
  %93 = sub i32 %92, %91
  store i32 %93, ptr %15, align 4
  br label %94

94:                                               ; preds = %87, %77
  %95 = load i32, ptr %15, align 4
  %96 = icmp ule i32 %95, 0
  br i1 %96, label %97, label %98

97:                                               ; preds = %94
  store i32 1, ptr %16, align 4
  br label %115

98:                                               ; preds = %94
  br label %99

99:                                               ; preds = %54, %98
  %100 = load i32, ptr %15, align 4
  %101 = icmp ugt i32 %100, 0
  br i1 %101, label %102, label %114

102:                                              ; preds = %99
  %103 = load ptr, ptr %9, align 8
  %104 = load ptr, ptr %8, align 8
  %105 = load ptr, ptr %7, align 8
  %106 = load i32, ptr %13, align 4
  %107 = load i32, ptr %15, align 4
  %108 = sub i32 %107, 0
  %109 = call ptr @proto_tree_add_expert(ptr noundef %103, ptr noundef %104, ptr noundef @ei_ansi_a_extraneous_data, ptr noundef %105, i32 noundef %106, i32 noundef %108)
  %110 = load i32, ptr %15, align 4
  %111 = sub i32 %110, 0
  %112 = load i32, ptr %13, align 4
  %113 = add i32 %112, %111
  store i32 %113, ptr %13, align 4
  br label %114

114:                                              ; preds = %102, %99
  store i32 0, ptr %16, align 4
  br label %115

115:                                              ; preds = %114, %97, %76, %53
  call void @llvm.lifetime.end.p0(i64 4, ptr %15) #8
  call void @llvm.lifetime.end.p0(i64 4, ptr %14) #8
  call void @llvm.lifetime.end.p0(i64 4, ptr %13) #8
  %116 = load i32, ptr %16, align 4
  switch i32 %116, label %118 [
    i32 0, label %117
    i32 1, label %117
  ]

117:                                              ; preds = %115, %115
  ret void

118:                                              ; preds = %115
  unreachable
}