; Function Attrs: null_pointer_is_valid sspstrong uwtable
define internal void @dtap_lu_reject(ptr noundef %0, ptr noundef %1, ptr noundef %2, i32 noundef %3, i32 noundef %4, ptr noundef %5) #1 {
  %7 = getelementptr inbounds nuw i8, ptr %5, i64 25
  %8 = load i8, ptr %7, align 1, !range !19, !noundef !20
  %9 = trunc nuw i8 %8 to i1
  br i1 %9, label %10, label %12

10:                                               ; preds = %6
  %11 = tail call fastcc zeroext i16 @elem_tv(ptr noundef %0, ptr noundef %1, ptr noundef %2, i32 noundef 63, i32 noundef %3, ptr noundef %5)
  br label %elem_v.exit

12:                                               ; preds = %6
  %13 = load i32, ptr @ansi_a_elem_1_max, align 4
  %14 = add nsw i32 %13, -1
  %15 = icmp ult i32 %14, 64
  br i1 %15, label %16, label %19

16:                                               ; preds = %12
  %17 = tail call i32 @tvb_reported_length_remaining(ptr noundef %0, i32 noundef %3)
  %18 = trunc i32 %17 to i16
  br label %elem_v.exit

19:                                               ; preds = %12
  %20 = load ptr, ptr @ansi_a_elem_1_strings, align 8
  %21 = getelementptr i8, ptr %20, i64 1528
  %22 = load i32, ptr %21, align 8
  %23 = getelementptr inbounds nuw i8, ptr %5, i64 16
  store ptr null, ptr %23, align 8
  %24 = sext i32 %22 to i64
  %25 = getelementptr [92 x ptr], ptr @elem_1_fcn, i64 0, i64 %24
  %26 = load ptr, ptr %25, align 8
  %27 = icmp eq ptr %26, null
  br i1 %27, label %28, label %30

28:                                               ; preds = %19
  %29 = tail call ptr (ptr, ptr, ptr, ptr, i32, i32, ptr, ...) @proto_tree_add_expert_format(ptr noundef %2, ptr noundef %1, ptr noundef nonnull @ei_ansi_a_no_v_elem_diss, ptr noundef %0, i32 noundef %3, i32 noundef 1, ptr noundef nonnull @.str.1754)
  br label %elem_v.exit

30:                                               ; preds = %19
  %31 = tail call zeroext i8 %26(ptr noundef %0, ptr noundef %1, ptr noundef %2, i32 noundef %3, i32 noundef -1, ptr noundef %5)
  %32 = zext i8 %31 to i16
  br label %elem_v.exit

elem_v.exit:                                      ; preds = %30, %28, %16, %10
  %.in = phi i16 [ %11, %10 ], [ %18, %16 ], [ 1, %28 ], [ %32, %30 ]
  %33 = zext i16 %.in to i32
  %34 = add i32 %3, %33
  %35 = sub i32 %4, %33
  %36 = icmp eq i32 %35, 0
  br i1 %36, label %53, label %37

37:                                               ; preds = %elem_v.exit
  %38 = load i32, ptr @global_a_variant, align 4
  %cond = icmp eq i32 %38, 10
  br i1 %cond, label %39, label %51

39:                                               ; preds = %37
  %40 = tail call fastcc zeroext i16 @elem_tlv(ptr noundef %0, ptr noundef %1, ptr noundef %2, i32 noundef 57, i32 noundef %34, ptr noundef nonnull @.str.282, ptr noundef %5)
  %41 = zext i16 %40 to i32
  %42 = icmp eq i32 %35, %41
  br i1 %42, label %53, label %43

43:                                               ; preds = %39
  %44 = add i32 %34, %41
  %45 = tail call fastcc zeroext i16 @elem_tlv(ptr noundef %0, ptr noundef %1, ptr noundef %2, i32 noundef 88, i32 noundef %44, ptr noundef nonnull @.str.282, ptr noundef %5)
  %46 = zext i16 %45 to i32
  %47 = add i32 %44, %46
  %48 = add nuw nsw i32 %41, %46
  %49 = sub i32 %35, %48
  %50 = icmp eq i32 %49, 0
  br i1 %50, label %53, label %51

51:                                               ; preds = %37, %43
  %.148 = phi i32 [ %47, %43 ], [ %34, %37 ]
  %.1 = phi i32 [ %49, %43 ], [ %35, %37 ]
  %52 = tail call ptr @proto_tree_add_expert(ptr noundef %2, ptr noundef %1, ptr noundef nonnull @ei_ansi_a_extraneous_data, ptr noundef %0, i32 noundef %.148, i32 noundef %.1)
  br label %53

53:                                               ; preds = %43, %39, %elem_v.exit, %51
  ret void
}